(dp1
S'cred_file'
p2
ccopy_reg
_reconstructor
p3
(ctwisted.plugin
CachedDropin
p4
c__builtin__
object
p5
NtRp6
(dp7
S'moduleName'
p8
S'twisted.plugins.cred_file'
p9
sS'description'
p10
S"\nCred plugin for a file of the format 'username:password'.\n"
p11
sS'plugins'
p12
(lp13
g3
(ctwisted.plugin
CachedPlugin
p14
g5
NtRp15
(dp16
S'provided'
p17
(lp18
ctwisted.cred.strcred
ICheckerFactory
p19
actwisted.plugin
IPlugin
p20
asS'dropin'
p21
g6
sS'name'
p22
S'theFileCheckerFactory'
p23
sg10
S'\n    A factory for instances of L{FilePasswordDB}.\n    '
p24
sbasbsS'twisted_telnet'
p25
g3
(g4
g5
NtRp26
(dp27
g8
S'twisted.plugins.twisted_telnet'
p28
sg10
Nsg12
(lp29
g3
(g14
g5
NtRp30
(dp31
g17
(lp32
g20
actwisted.application.service
IServiceMaker
p33
asg21
g26
sg22
S'TwistedTelnet'
p34
sg10
S'\n    Utility class to simplify the definition of L{IServiceMaker} plugins.\n    '
p35
sbasbsS'twisted_socks'
p36
g3
(g4
g5
NtRp37
(dp38
g8
S'twisted.plugins.twisted_socks'
p39
sg10
Nsg12
(lp40
g3
(g14
g5
NtRp41
(dp42
g17
(lp43
g20
ag33
asg21
g37
sg22
S'TwistedSOCKS'
p44
sg10
g35
sbasbsS'twisted_core'
p45
g3
(g4
g5
NtRp46
(dp47
g8
S'twisted.plugins.twisted_core'
p48
sg10
Nsg12
(lp49
g3
(g14
g5
NtRp50
(dp51
g17
(lp52
g20
actwisted.internet.interfaces
IStreamServerEndpointStringParser
p53
asg21
g46
sg22
S'tcp6ServerEndpointParser'
p54
sg10
S'\n    Stream server endpoint string parser for the TCP6ServerEndpoint type.\n\n    @ivar prefix: See L{IStreamClientEndpointStringParser.prefix}.\n    '
p55
sbag3
(g14
g5
NtRp56
(dp57
g17
(lp58
g20
ag53
asg21
g46
sg22
S'stdioEndpointParser'
p59
sg10
S'\n    Stream server endpoint string parser for the Standard I/O type.\n\n    @ivar prefix: See L{IStreamClientEndpointStringParser.prefix}.\n    '
p60
sbag3
(g14
g5
NtRp61
(dp62
g17
(lp63
g20
ag53
asg21
g46
sg22
S'systemdEndpointParser'
p64
sg10
S'\n    Stream server endpoint string parser for the I{systemd} endpoint type.\n\n    @ivar prefix: See L{IStreamClientEndpointStringParser.prefix}.\n\n    @ivar _sddaemon: A L{ListenFDs} instance used to translate an index into an\n        actual file descriptor.\n    '
p65
sbasbsS'cred_sshkeys'
p66
g3
(g4
g5
NtRp67
(dp68
g8
S'twisted.plugins.cred_sshkeys'
p69
sg10
S'\nCred plugin for ssh key login\n'
p70
sg12
(lp71
sbsS'cred_unix'
p72
g3
(g4
g5
NtRp73
(dp74
g8
S'twisted.plugins.cred_unix'
p75
sg10
S'\nCred plugin for UNIX user accounts.\n'
p76
sg12
(lp77
g3
(g14
g5
NtRp78
(dp79
g17
(lp80
g19
ag20
asg21
g73
sg22
S'theUnixCheckerFactory'
p81
sg10
S'\n    A factory for L{UNIXChecker}.\n    '
p82
sbasbsS'twisted_news'
p83
g3
(g4
g5
NtRp84
(dp85
g8
S'twisted.plugins.twisted_news'
p86
sg10
Nsg12
(lp87
g3
(g14
g5
NtRp88
(dp89
g17
(lp90
g20
ag33
asg21
g84
sg22
S'TwistedNews'
p91
sg10
g35
sbasbsS'twisted_qtstub'
p92
g3
(g4
g5
NtRp93
(dp94
g8
S'twisted.plugins.twisted_qtstub'
p95
sg10
S'\nBackwards-compatibility plugin for the Qt reactor.\n\nThis provides a Qt reactor plugin named C{qt} which emits a deprecation\nwarning and a pointer to the separately distributed Qt reactor plugins.\n'
p96
sg12
(lp97
g3
(g14
g5
NtRp98
(dp99
g17
(lp100
g20
actwisted.application.reactors
IReactorInstaller
p101
asg21
g93
sg22
S'qt'
p102
sg10
S'\n    Reactor plugin which emits a deprecation warning on the successful\n    installation of its reactor or a pointer to further information if an\n    ImportError occurs while attempting to install it.\n    '
p103
sbasbsS'twisted_words'
p104
g3
(g4
g5
NtRp105
(dp106
g8
S'twisted.plugins.twisted_words'
p107
sg10
Nsg12
(lp108
g3
(g14
g5
NtRp109
(dp110
g17
(lp111
g20
ag33
asg21
g105
sg22
S'TwistedXMPPRouter'
p112
sg10
g35
sbag3
(g14
g5
NtRp113
(dp114
g17
(lp115
g20
actwisted.words.iwords
IProtocolPlugin
p116
asg21
g105
sg22
S'RelayChatInterface'
p117
sg10
Nsbag3
(g14
g5
NtRp118
(dp119
g17
(lp120
g20
ag33
asg21
g105
sg22
S'NewTwistedWords'
p121
sg10
g35
sbag3
(g14
g5
NtRp122
(dp123
g17
(lp124
g20
ag116
asg21
g105
sg22
S'PBChatInterface'
p125
sg10
NsbasbsS'twisted_names'
p126
g3
(g4
g5
NtRp127
(dp128
g8
S'twisted.plugins.twisted_names'
p129
sg10
Nsg12
(lp130
g3
(g14
g5
NtRp131
(dp132
g17
(lp133
g20
ag33
asg21
g127
sg22
S'TwistedNames'
p134
sg10
g35
sbasbsS'twisted_conch'
p135
g3
(g4
g5
NtRp136
(dp137
g8
S'twisted.plugins.twisted_conch'
p138
sg10
Nsg12
(lp139
g3
(g14
g5
NtRp140
(dp141
g17
(lp142
g20
ag33
asg21
g136
sg22
S'TwistedManhole'
p143
sg10
g35
sbag3
(g14
g5
NtRp144
(dp145
g17
(lp146
g20
ag33
asg21
g136
sg22
S'TwistedSSH'
p147
sg10
g35
sbasbsS'cred_memory'
p148
g3
(g4
g5
NtRp149
(dp150
g8
S'twisted.plugins.cred_memory'
p151
sg10
S'\nCred plugin for an in-memory user database.\n'
p152
sg12
(lp153
g3
(g14
g5
NtRp154
(dp155
g17
(lp156
g19
ag20
asg21
g149
sg22
S'theInMemoryCheckerFactory'
p157
sg10
S"\n    A factory for in-memory credentials checkers.\n\n    This is only of use in one-off test programs or examples which don't\n    want to focus too much on how credentials are verified.\n\n    You really don't want to use this for anything else.  It is, at best, a\n    toy.  If you need a simple credentials checker for a real application,\n    see L{cred_passwd.PasswdCheckerFactory}.\n    "
p158
sbasbsS'twisted_ftp'
p159
g3
(g4
g5
NtRp160
(dp161
g8
S'twisted.plugins.twisted_ftp'
p162
sg10
Nsg12
(lp163
g3
(g14
g5
NtRp164
(dp165
g17
(lp166
g20
ag33
asg21
g160
sg22
S'TwistedFTP'
p167
sg10
g35
sbasbsS'twisted_manhole'
p168
g3
(g4
g5
NtRp169
(dp170
g8
S'twisted.plugins.twisted_manhole'
p171
sg10
Nsg12
(lp172
g3
(g14
g5
NtRp173
(dp174
g17
(lp175
g20
ag33
asg21
g169
sg22
g143
sg10
g35
sbasbsS'cred_anonymous'
p176
g3
(g4
g5
NtRp177
(dp178
g8
S'twisted.plugins.cred_anonymous'
p179
sg10
S'\nCred plugin for anonymous logins.\n'
p180
sg12
(lp181
g3
(g14
g5
NtRp182
(dp183
g17
(lp184
g19
ag20
asg21
g177
sg22
S'theAnonymousCheckerFactory'
p185
sg10
S'\n    Generates checkers that will authenticate an anonymous request.\n    '
p186
sbasbsS'twisted_portforward'
p187
g3
(g4
g5
NtRp188
(dp189
g8
S'twisted.plugins.twisted_portforward'
p190
sg10
Nsg12
(lp191
g3
(g14
g5
NtRp192
(dp193
g17
(lp194
g20
ag33
asg21
g188
sg22
S'TwistedPortForward'
p195
sg10
g35
sbasbsS'twisted_reactors'
p196
g3
(g4
g5
NtRp197
(dp198
g8
S'twisted.plugins.twisted_reactors'
p199
sg10
Nsg12
(lp200
g3
(g14
g5
NtRp201
(dp202
g17
(lp203
g20
ag101
asg21
g197
sg22
S'glade'
p204
sg10
S'\n    @ivar moduleName: The fully-qualified Python name of the module of which\n    the install callable is an attribute.\n    '
p205
sbag3
(g14
g5
NtRp206
(dp207
g17
(lp208
g20
ag101
asg21
g197
sg22
S'win32er'
p209
sg10
g205
sbag3
(g14
g5
NtRp210
(dp211
g17
(lp212
g20
ag101
asg21
g197
sg22
S'glib2'
p213
sg10
g205
sbag3
(g14
g5
NtRp214
(dp215
g17
(lp216
g20
ag101
asg21
g197
sg22
S'kqueue'
p217
sg10
g205
sbag3
(g14
g5
NtRp218
(dp219
g17
(lp220
g20
ag101
asg21
g197
sg22
S'epoll'
p221
sg10
g205
sbag3
(g14
g5
NtRp222
(dp223
g17
(lp224
g20
ag101
asg21
g197
sg22
S'iocp'
p225
sg10
g205
sbag3
(g14
g5
NtRp226
(dp227
g17
(lp228
g20
ag101
asg21
g197
sg22
S'gtk'
p229
sg10
g205
sbag3
(g14
g5
NtRp230
(dp231
g17
(lp232
g20
ag101
asg21
g197
sg22
S'cf'
p233
sg10
g205
sbag3
(g14
g5
NtRp234
(dp235
g17
(lp236
g20
ag101
asg21
g197
sg22
S'gtk2'
p237
sg10
g205
sbag3
(g14
g5
NtRp238
(dp239
g17
(lp240
g20
ag101
asg21
g197
sg22
S'default'
p241
sg10
g205
sbag3
(g14
g5
NtRp242
(dp243
g17
(lp244
g20
ag101
asg21
g197
sg22
S'gi'
p245
sg10
g205
sbag3
(g14
g5
NtRp246
(dp247
g17
(lp248
g20
ag101
asg21
g197
sg22
S'poll'
p249
sg10
g205
sbag3
(g14
g5
NtRp250
(dp251
g17
(lp252
g20
ag101
asg21
g197
sg22
S'gtk3'
p253
sg10
g205
sbag3
(g14
g5
NtRp254
(dp255
g17
(lp256
g20
ag101
asg21
g197
sg22
S'select'
p257
sg10
g205
sbag3
(g14
g5
NtRp258
(dp259
g17
(lp260
g20
ag101
asg21
g197
sg22
S'wx'
p261
sg10
g205
sbasbsS'twisted_web'
p262
g3
(g4
g5
NtRp263
(dp264
g8
S'twisted.plugins.twisted_web'
p265
sg10
Nsg12
(lp266
g3
(g14
g5
NtRp267
(dp268
g17
(lp269
g20
ag33
asg21
g263
sg22
S'TwistedWeb'
p270
sg10
g35
sbasbsS'twisted_inet'
p271
g3
(g4
g5
NtRp272
(dp273
g8
S'twisted.plugins.twisted_inet'
p274
sg10
Nsg12
(lp275
g3
(g14
g5
NtRp276
(dp277
g17
(lp278
g20
ag33
asg21
g272
sg22
S'TwistedINETD'
p279
sg10
g35
sbasbsS'twisted_trial'
p280
g3
(g4
g5
NtRp281
(dp282
g8
S'twisted.plugins.twisted_trial'
p283
sg10
Nsg12
(lp284
g3
(g14
g5
NtRp285
(dp286
g17
(lp287
g20
actwisted.trial.itrial
IReporter
p288
asg21
g281
sg22
S'Subunit'
p289
sg10
Nsbag3
(g14
g5
NtRp290
(dp291
g17
(lp292
g20
ag288
asg21
g281
sg22
S'BlackAndWhite'
p293
sg10
Nsbag3
(g14
g5
NtRp294
(dp295
g17
(lp296
g20
ag288
asg21
g281
sg22
S'Classic'
p297
sg10
Nsbag3
(g14
g5
NtRp298
(dp299
g17
(lp300
g20
ag288
asg21
g281
sg22
S'Tree'
p301
sg10
Nsbag3
(g14
g5
NtRp302
(dp303
g17
(lp304
g20
ag288
asg21
g281
sg22
S'Timing'
p305
sg10
Nsbag3
(g14
g5
NtRp306
(dp307
g17
(lp308
g20
ag288
asg21
g281
sg22
S'Minimal'
p309
sg10
NsbasbsS'twisted_lore'
p310
g3
(g4
g5
NtRp311
(dp312
g8
S'twisted.plugins.twisted_lore'
p313
sg10
Nsg12
(lp314
g3
(g14
g5
NtRp315
(dp316
g17
(lp317
g20
actwisted.lore.scripts.lore
IProcessor
p318
asg21
g311
sg22
S'SlideProcessor'
p319
sg10
Nsbag3
(g14
g5
NtRp320
(dp321
g17
(lp322
g20
ag318
asg21
g311
sg22
S'DefaultProcessor'
p323
sg10
Nsbag3
(g14
g5
NtRp324
(dp325
g17
(lp326
g20
ag318
asg21
g311
sg22
S'MathProcessor'
p327
sg10
Nsbag3
(g14
g5
NtRp328
(dp329
g17
(lp330
g20
ag318
asg21
g311
sg22
S'NevowProcessor'
p331
sg10
Nsbag3
(g14
g5
NtRp332
(dp333
g17
(lp334
g20
ag318
asg21
g311
sg22
S'ManProcessor'
p335
sg10
NsbasbsS'twisted_mail'
p336
g3
(g4
g5
NtRp337
(dp338
g8
S'twisted.plugins.twisted_mail'
p339
sg10
Nsg12
(lp340
g3
(g14
g5
NtRp341
(dp342
g17
(lp343
g20
ag33
asg21
g337
sg22
S'TwistedMail'
p344
sg10
g35
sbasbsS'twisted_runner'
p345
g3
(g4
g5
NtRp346
(dp347
g8
S'twisted.plugins.twisted_runner'
p348
sg10
Nsg12
(lp349
g3
(g14
g5
NtRp350
(dp351
g17
(lp352
g20
ag33
asg21
g346
sg22
S'TwistedProcmon'
p353
sg10
g35
sbasbs.